(dp1
S'tags'
p2
(dp3
S'admin'
p4
(lp5
I1
asS'cse07'
p6
(lp7
I2
assS'id_number'
p8
I7
sS'pretty_print'
p9
I00
sS'system'
p10
S'sage'
p11
sS'published_id_number'
p12
NsS'owner'
p13
g6
sS'viewers'
p14
(lp15
sS'ratings'
p16
(lp17
sS'collaborators'
p18
(lp19
sS'name'
p20
VUntitled
p21
sS'auto_publish'
p22
I00
sS'last_change'
p23
(g6
F1301304762.541204
tp24
sS'worksheet_that_was_published'
p25
(g6
I7
tp26
s.