(dp1
S'tags'
p2
(dp3
S'admin'
p4
(lp5
I1
asS'cse07'
p6
(lp7
I1
asS'guest'
p8
(lp9
I1
assS'id_number'
p10
I10
sS'pretty_print'
p11
I00
sS'system'
p12
S'sage'
p13
sS'published_id_number'
p14
I18
sS'owner'
p15
S'cse07'
p16
sS'viewers'
p17
(lp18
sS'ratings'
p19
(lp20
sS'collaborators'
p21
(lp22
sS'name'
p23
VThird Normal Form
p24
sS'auto_publish'
p25
I01
sS'last_change'
p26
(S'cse07'
p27
F1310378751.8784039
tp28
sS'worksheet_that_was_published'
p29
(g6
I10
tp30
s.