(dp1
S'tags'
p2
(dp3
S'admin'
p4
(lp5
I1
asS'cse07'
p6
(lp7
I1
asS'guest'
p8
(lp9
I1
asS'MohanRaj'
p10
(lp11
I1
assS'id_number'
p12
I3
sS'pretty_print'
p13
I00
sS'system'
p14
S'sage'
p15
sS'published_id_number'
p16
I23
sS'owner'
p17
S'cse07'
p18
sS'viewers'
p19
(lp20
sS'ratings'
p21
(lp22
sS'collaborators'
p23
(lp24
sS'name'
p25
VRelational Model
p26
sS'auto_publish'
p27
I01
sS'last_change'
p28
(S'cse07'
p29
F1308595283.444109
tp30
sS'worksheet_that_was_published'
p31
(g6
I3
tp32
s.