(dp1
S'tags'
p2
(dp3
S'admin'
p4
(lp5
I1
asS'cse07'
p6
(lp7
I1
asS'ramalingareddy'
p8
(lp9
I1
asS'guest'
p10
(lp11
I1
asS'MohanRaj'
p12
(lp13
I1
assS'id_number'
p14
I0
sS'pretty_print'
p15
I00
sS'system'
p16
S'sage'
p17
sS'published_id_number'
p18
I24
sS'owner'
p19
S'cse07'
p20
sS'viewers'
p21
(lp22
sS'ratings'
p23
(lp24
sS'collaborators'
p25
(lp26
sS'name'
p27
VER Model
p28
sS'auto_publish'
p29
I01
sS'last_change'
p30
(S'cse07'
p31
F1308595144.9589019
tp32
sS'worksheet_that_was_published'
p33
(g6
I0
tp34
s.