(dp1
S'tags'
p2
(dp3
S'admin'
p4
(lp5
I1
asS'cse07'
p6
(lp7
I1
assS'id_number'
p8
I13
sS'pretty_print'
p9
I00
sS'system'
p10
S'sage'
p11
sS'published_id_number'
p12
I14
sS'owner'
p13
S'cse07'
p14
sS'viewers'
p15
(lp16
sS'ratings'
p17
(lp18
sS'collaborators'
p19
(lp20
sS'name'
p21
VOpening Page
p22
sS'auto_publish'
p23
I01
sS'last_change'
p24
(S'cse07'
p25
F1312006848.6850669
tp26
sS'worksheet_that_was_published'
p27
(g6
I13
tp28
s.