(dp1
S'tags'
p2
(dp3
S'admin'
p4
(lp5
I1
asS'cse07'
p6
(lp7
I2
asS'cse06'
p8
(lp9
I1
assS'id_number'
p10
I1
sS'pretty_print'
p11
I00
sS'system'
p12
S'sage'
p13
sS'published_id_number'
p14
NsS'owner'
p15
g6
sS'viewers'
p16
(lp17
sS'ratings'
p18
(lp19
sS'collaborators'
p20
(lp21
sS'name'
p22
VEnhanced ER Model
p23
sS'auto_publish'
p24
I00
sS'last_change'
p25
(S'admin'
p26
F1299304899.263581
tp27
sS'worksheet_that_was_published'
p28
(g6
I1
tp29
s.